target datalayout = "e-m:e-p270:32:32-p271:32:32-p272:64:64-i64:64-i128:128-f80:128-n8:16:32:64-S128"
target triple = "x86_64-pc-linux-gnu"

%struct.cli_bc_ctx = type { i8, i16, i32, ptr, ptr, i32, i32, ptr, ptr, ptr, i32, i32, i64, ptr, ptr, ptr, %struct.cli_bc_hooks, %struct.cli_exe_info, [64 x i32], [64 x i32], i32, ptr, ptr, i32, i32, i32, i32, ptr, i32, ptr, ptr, i32, i32, i32, i32, i32, i32, ptr, ptr, ptr, ptr, ptr, ptr, ptr, i32, i32, i32, i32, ptr, ptr, ptr, ptr, ptr, i32, i32, i32, i32, ptr, ptr, ptr, ptr, i32, i32, i32, ptr, i32, ptr, i32, i32, ptr, i32 }
%struct.cli_bc_hooks = type { ptr, ptr, ptr, ptr, ptr }
%struct.cli_exe_info = type { ptr, i32, i32, i16, i32, i32, %struct.cli_hashset, i32, i32, i32, i32, i32, i32, i32, i32, i32, %struct.pe_image_file_hdr, %union.anon, [16 x %struct.pe_image_data_dir] }
%struct.cli_hashset = type { ptr, ptr, ptr, i32, i32, i32, i32 }
%struct.pe_image_file_hdr = type { i32, i16, i16, i32, i32, i32, i16, i16 }
%union.anon = type { %struct.pe_image_optional_hdr64 }
%struct.pe_image_optional_hdr64 = type { i16, i8, i8, i32, i32, i32, i32, i32, i64, i32, i32, i16, i16, i16, i16, i16, i16, i32, i32, i32, i32, i16, i16, i64, i64, i64, i64, i32, i32 }
%struct.pe_image_data_dir = type { i32, i32 }

@.str.134 = private unnamed_addr constant [16 x i8] c"API misuse @619\00", align 1

; Function Attrs: nounwind uwtable
define internal ptr @get_hashset(ptr noundef %0, i32 noundef %1) #0 {
  %3 = alloca ptr, align 8
  %4 = alloca ptr, align 8
  %5 = alloca i32, align 4
  store ptr %0, ptr %4, align 8
  store i32 %1, ptr %5, align 4
  %6 = load i32, ptr %5, align 4
  %7 = icmp slt i32 %6, 0
  br i1 %7, label %19, label %8

8:                                                ; preds = %2
  %9 = load i32, ptr %5, align 4
  %10 = load ptr, ptr %4, align 8
  %11 = getelementptr inbounds %struct.cli_bc_ctx, ptr %10, i32 0, i32 54
  %12 = load i32, ptr %11, align 4
  %13 = icmp uge i32 %9, %12
  br i1 %13, label %19, label %14

14:                                               ; preds = %8
  %15 = load ptr, ptr %4, align 8
  %16 = getelementptr inbounds %struct.cli_bc_ctx, ptr %15, i32 0, i32 57
  %17 = load ptr, ptr %16, align 8
  %18 = icmp ne ptr %17, null
  br i1 %18, label %23, label %19

19:                                               ; preds = %14, %8, %2
  %20 = load ptr, ptr %4, align 8
  %21 = getelementptr inbounds %struct.cli_bc_ctx, ptr %20, i32 0, i32 66
  %22 = load ptr, ptr %21, align 8
  call void @cli_event_error_str(ptr noundef %22, ptr noundef @.str.134)
  store ptr null, ptr %3, align 8
  br label %30

23:                                               ; preds = %14
  %24 = load ptr, ptr %4, align 8
  %25 = getelementptr inbounds %struct.cli_bc_ctx, ptr %24, i32 0, i32 57
  %26 = load ptr, ptr %25, align 8
  %27 = load i32, ptr %5, align 4
  %28 = sext i32 %27 to i64
  %29 = getelementptr inbounds %struct.cli_hashset, ptr %26, i64 %28
  store ptr %29, ptr %3, align 8
  br label %30

30:                                               ; preds = %23, %19
  %31 = load ptr, ptr %3, align 8
  ret ptr %31
}

; Function Attrs: nounwind uwtable
define i32 @cli_bcapi_hashset_empty(ptr noundef %0, i32 noundef %1) #0 {
  %3 = alloca ptr, align 8
  %4 = alloca i32, align 4
  %5 = alloca ptr, align 8
  store ptr %0, ptr %3, align 8
  store i32 %1, ptr %4, align 4
  %6 = load ptr, ptr %3, align 8
  %7 = load i32, ptr %4, align 4
  %8 = call ptr @get_hashset(ptr noundef %6, i32 noundef %7)
  store ptr %8, ptr %5, align 8
  %9 = load ptr, ptr %5, align 8
  %10 = icmp ne ptr %9, null
  br i1 %10, label %11, label %18

11:                                               ; preds = %2
  %12 = load ptr, ptr %5, align 8
  %13 = getelementptr inbounds %struct.cli_hashset, ptr %12, i32 0, i32 5
  %14 = load i32, ptr %13, align 8
  %15 = icmp ne i32 %14, 0
  %16 = xor i1 %15, true
  %17 = zext i1 %16 to i32
  br label %19

18:                                               ; preds = %2
  br label %19

19:                                               ; preds = %18, %11
  %20 = phi i32 [ %17, %11 ], [ 1, %18 ]
  ret i32 %20
}