; Function Attrs: nounwind uwtable
define i32 @cli_bcapi_hashset_empty(ptr nocapture noundef readonly %0, i32 noundef %1) local_unnamed_addr #1 {
  %3 = icmp slt i32 %1, 0
  br i1 %3, label %get_hashset.exit.thread, label %4

4:                                                ; preds = %2
  %5 = getelementptr inbounds i8, ptr %0, i64 1236
  %6 = load i32, ptr %5, align 4
  %.not.i = icmp ugt i32 %6, %1
  br i1 %.not.i, label %7, label %get_hashset.exit.thread

7:                                                ; preds = %4
  %8 = getelementptr inbounds i8, ptr %0, i64 1248
  %9 = load ptr, ptr %8, align 8
  %.not9.i = icmp eq ptr %9, null
  br i1 %.not9.i, label %get_hashset.exit.thread, label %get_hashset.exit

get_hashset.exit.thread:                          ; preds = %2, %4, %7
  %10 = getelementptr inbounds i8, ptr %0, i64 1312
  %11 = load ptr, ptr %10, align 8
  tail call void @cli_event_error_str(ptr noundef %11, ptr noundef nonnull @.str.134) #29
  br label %16

get_hashset.exit:                                 ; preds = %7
  %12 = zext nneg i32 %1 to i64
  %13 = getelementptr inbounds %struct.cli_hashset, ptr %9, i64 %12, i32 5
  %14 = load i32, ptr %13, align 8
  %.not3 = icmp eq i32 %14, 0
  %15 = zext i1 %.not3 to i32
  br label %16

16:                                               ; preds = %get_hashset.exit.thread, %get_hashset.exit
  %17 = phi i32 [ %15, %get_hashset.exit ], [ 1, %get_hashset.exit.thread ]
  ret i32 %17
}